; Function Attrs: mustprogress nofree norecurse nosync nounwind willreturn memory(argmem: readwrite) uwtable
define ptr @rocksdb_pinnableslice_value(ptr noundef readonly %0, ptr noundef writeonly captures(none) initializes((0, 8)) %1) local_unnamed_addr #10 {
  %.not = icmp eq ptr %0, null
  br i1 %.not, label %7, label %3

3:                                                ; preds = %2
  %4 = getelementptr inbounds nuw i8, ptr %0, i64 8
  %5 = load i64, ptr %4, align 8, !tbaa !253
  %6 = load ptr, ptr %0, align 8, !tbaa !251
  br label %7

7:                                                ; preds = %2, %3
  %.sink = phi i64 [ %5, %3 ], [ 0, %2 ]
  %.0 = phi ptr [ %6, %3 ], [ null, %2 ]
  store i64 %.sink, ptr %1, align 8, !tbaa !10
  ret ptr %.0
}